; Function Attrs: nounwind uwtable
define dso_local i64 @to_jsonb(ptr noundef readonly captures(none) %0) local_unnamed_addr #0 {
  %2 = alloca %struct.JsonbInState, align 8
  %3 = alloca i32, align 4
  %4 = alloca i32, align 4
  %5 = getelementptr inbounds nuw i8, ptr %0, i64 32
  %6 = load i64, ptr %5, align 8
  %7 = load ptr, ptr %0, align 8
  %8 = tail call i32 @get_fn_expr_argtype(ptr noundef %7, i32 noundef 0) #11
  call void @llvm.lifetime.start.p0(i64 4, ptr nonnull %3) #11
  call void @llvm.lifetime.start.p0(i64 4, ptr nonnull %4) #11
  %9 = icmp eq i32 %8, 0
  br i1 %9, label %10, label %14

10:                                               ; preds = %1
  %11 = tail call zeroext i1 @errstart_cold(i32 noundef 21, ptr noundef null) #12
  tail call void @llvm.assume(i1 %11)
  %12 = tail call i32 @errcode(i32 noundef 50856066) #11
  %13 = tail call i32 (ptr, ...) @errmsg(ptr noundef nonnull @.str.16) #11
  tail call void @errfinish(ptr noundef nonnull @.str.1, i32 noundef 1098, ptr noundef nonnull @__func__.to_jsonb) #11
  unreachable

14:                                               ; preds = %1
  call void @json_categorize_type(i32 noundef %8, i1 noundef zeroext true, ptr noundef nonnull %3, ptr noundef nonnull %4) #11
  %15 = load i32, ptr %3, align 4
  %16 = load i32, ptr %4, align 4
  call void @llvm.lifetime.start.p0(i64 32, ptr nonnull %2) #11
  call void @llvm.memset.p0.i64(ptr noundef nonnull align 8 dereferenceable(32) %2, i8 0, i64 32, i1 false)
  call fastcc void @datum_to_jsonb_internal(i64 noundef %6, i1 noundef zeroext false, ptr noundef %2, i32 noundef %15, i32 noundef %16, i1 noundef zeroext false)
  %17 = getelementptr inbounds nuw i8, ptr %2, i64 8
  %18 = load ptr, ptr %17, align 8
  %19 = call ptr @JsonbValueToJsonb(ptr noundef %18) #11
  %20 = ptrtoint ptr %19 to i64
  call void @llvm.lifetime.end.p0(i64 32, ptr nonnull %2) #11
  call void @llvm.lifetime.end.p0(i64 4, ptr nonnull %4) #11
  call void @llvm.lifetime.end.p0(i64 4, ptr nonnull %3) #11
  ret i64 %20
}